target datalayout = "e-m:e-p270:32:32-p271:32:32-p272:64:64-i64:64-i128:128-f80:128-n8:16:32:64-S128"
target triple = "x86_64-pc-linux-gnu"

; Function Attrs: nounwind uwtable
define internal void @bayer_grbg8_to_rgb48_copy(ptr noundef %0, i32 noundef %1, ptr noundef %2, i32 noundef %3, i32 noundef %4) #0 {
  %6 = alloca ptr, align 8
  %7 = alloca i32, align 4
  %8 = alloca ptr, align 8
  %9 = alloca i32, align 4
  %10 = alloca i32, align 4
  %11 = alloca ptr, align 8
  %12 = alloca i32, align 4
  store ptr %0, ptr %6, align 8, !tbaa !4
  store i32 %1, ptr %7, align 4, !tbaa !9
  store ptr %2, ptr %8, align 8, !tbaa !4
  store i32 %3, ptr %9, align 4, !tbaa !9
  store i32 %4, ptr %10, align 4, !tbaa !9
  call void @llvm.lifetime.start.p0(i64 8, ptr %11) #11
  %13 = load ptr, ptr %8, align 8, !tbaa !4
  store ptr %13, ptr %11, align 8, !tbaa !60
  call void @llvm.lifetime.start.p0(i64 4, ptr %12) #11
  %14 = load i32, ptr %9, align 4, !tbaa !9
  %15 = sdiv i32 %14, 2
  store i32 %15, ptr %9, align 4, !tbaa !9
  store i32 0, ptr %12, align 4, !tbaa !9
  br label %16

16:                                               ; preds = %160, %5
  %17 = load i32, ptr %12, align 4, !tbaa !9
  %18 = load i32, ptr %10, align 4, !tbaa !9
  %19 = icmp slt i32 %17, %18
  br i1 %19, label %20, label %163

20:                                               ; preds = %16
  %21 = load ptr, ptr %6, align 8, !tbaa !4
  %22 = load i32, ptr %7, align 4, !tbaa !9
  %23 = mul nsw i32 1, %22
  %24 = add nsw i32 %23, 0
  %25 = sext i32 %24 to i64
  %26 = getelementptr inbounds i8, ptr %21, i64 %25
  %27 = load i8, ptr %26, align 1, !tbaa !67
  %28 = zext i8 %27 to i16
  %29 = load ptr, ptr %11, align 8, !tbaa !60
  %30 = load i32, ptr %9, align 4, !tbaa !9
  %31 = mul nsw i32 1, %30
  %32 = add nsw i32 %31, 0
  %33 = add nsw i32 %32, 2
  %34 = sext i32 %33 to i64
  %35 = getelementptr inbounds i16, ptr %29, i64 %34
  store i16 %28, ptr %35, align 2, !tbaa !62
  %36 = load ptr, ptr %11, align 8, !tbaa !60
  %37 = load i32, ptr %9, align 4, !tbaa !9
  %38 = mul nsw i32 1, %37
  %39 = add nsw i32 %38, 3
  %40 = add nsw i32 %39, 2
  %41 = sext i32 %40 to i64
  %42 = getelementptr inbounds i16, ptr %36, i64 %41
  store i16 %28, ptr %42, align 2, !tbaa !62
  %43 = load ptr, ptr %11, align 8, !tbaa !60
  %44 = load i32, ptr %9, align 4, !tbaa !9
  %45 = mul nsw i32 0, %44
  %46 = add nsw i32 %45, 3
  %47 = add nsw i32 %46, 2
  %48 = sext i32 %47 to i64
  %49 = getelementptr inbounds i16, ptr %43, i64 %48
  store i16 %28, ptr %49, align 2, !tbaa !62
  %50 = load ptr, ptr %11, align 8, !tbaa !60
  %51 = load i32, ptr %9, align 4, !tbaa !9
  %52 = mul nsw i32 0, %51
  %53 = add nsw i32 %52, 0
  %54 = add nsw i32 %53, 2
  %55 = sext i32 %54 to i64
  %56 = getelementptr inbounds i16, ptr %50, i64 %55
  store i16 %28, ptr %56, align 2, !tbaa !62
  %57 = load ptr, ptr %6, align 8, !tbaa !4
  %58 = load i32, ptr %7, align 4, !tbaa !9
  %59 = mul nsw i32 0, %58
  %60 = add nsw i32 %59, 0
  %61 = sext i32 %60 to i64
  %62 = getelementptr inbounds i8, ptr %57, i64 %61
  %63 = load i8, ptr %62, align 1, !tbaa !67
  %64 = zext i8 %63 to i16
  %65 = load ptr, ptr %11, align 8, !tbaa !60
  %66 = load i32, ptr %9, align 4, !tbaa !9
  %67 = mul nsw i32 0, %66
  %68 = add nsw i32 %67, 0
  %69 = add nsw i32 %68, 1
  %70 = sext i32 %69 to i64
  %71 = getelementptr inbounds i16, ptr %65, i64 %70
  store i16 %64, ptr %71, align 2, !tbaa !62
  %72 = load ptr, ptr %6, align 8, !tbaa !4
  %73 = load i32, ptr %7, align 4, !tbaa !9
  %74 = mul nsw i32 1, %73
  %75 = add nsw i32 %74, 1
  %76 = sext i32 %75 to i64
  %77 = getelementptr inbounds i8, ptr %72, i64 %76
  %78 = load i8, ptr %77, align 1, !tbaa !67
  %79 = zext i8 %78 to i16
  %80 = load ptr, ptr %11, align 8, !tbaa !60
  %81 = load i32, ptr %9, align 4, !tbaa !9
  %82 = mul nsw i32 1, %81
  %83 = add nsw i32 %82, 3
  %84 = add nsw i32 %83, 1
  %85 = sext i32 %84 to i64
  %86 = getelementptr inbounds i16, ptr %80, i64 %85
  store i16 %79, ptr %86, align 2, !tbaa !62
  %87 = load ptr, ptr %6, align 8, !tbaa !4
  %88 = load i32, ptr %7, align 4, !tbaa !9
  %89 = mul nsw i32 0, %88
  %90 = add nsw i32 %89, 0
  %91 = sext i32 %90 to i64
  %92 = getelementptr inbounds i8, ptr %87, i64 %91
  %93 = load i8, ptr %92, align 1, !tbaa !67
  %94 = zext i8 %93 to i32
  %95 = load ptr, ptr %6, align 8, !tbaa !4
  %96 = load i32, ptr %7, align 4, !tbaa !9
  %97 = mul nsw i32 1, %96
  %98 = add nsw i32 %97, 1
  %99 = sext i32 %98 to i64
  %100 = getelementptr inbounds i8, ptr %95, i64 %99
  %101 = load i8, ptr %100, align 1, !tbaa !67
  %102 = zext i8 %101 to i32
  %103 = add i32 %94, %102
  %104 = lshr i32 %103, 1
  %105 = trunc i32 %104 to i16
  %106 = load ptr, ptr %11, align 8, !tbaa !60
  %107 = load i32, ptr %9, align 4, !tbaa !9
  %108 = mul nsw i32 1, %107
  %109 = add nsw i32 %108, 0
  %110 = add nsw i32 %109, 1
  %111 = sext i32 %110 to i64
  %112 = getelementptr inbounds i16, ptr %106, i64 %111
  store i16 %105, ptr %112, align 2, !tbaa !62
  %113 = load ptr, ptr %11, align 8, !tbaa !60
  %114 = load i32, ptr %9, align 4, !tbaa !9
  %115 = mul nsw i32 0, %114
  %116 = add nsw i32 %115, 3
  %117 = add nsw i32 %116, 1
  %118 = sext i32 %117 to i64
  %119 = getelementptr inbounds i16, ptr %113, i64 %118
  store i16 %105, ptr %119, align 2, !tbaa !62
  %120 = load ptr, ptr %6, align 8, !tbaa !4
  %121 = load i32, ptr %7, align 4, !tbaa !9
  %122 = mul nsw i32 0, %121
  %123 = add nsw i32 %122, 1
  %124 = sext i32 %123 to i64
  %125 = getelementptr inbounds i8, ptr %120, i64 %124
  %126 = load i8, ptr %125, align 1, !tbaa !67
  %127 = zext i8 %126 to i16
  %128 = load ptr, ptr %11, align 8, !tbaa !60
  %129 = load i32, ptr %9, align 4, !tbaa !9
  %130 = mul nsw i32 1, %129
  %131 = add nsw i32 %130, 0
  %132 = add nsw i32 %131, 0
  %133 = sext i32 %132 to i64
  %134 = getelementptr inbounds i16, ptr %128, i64 %133
  store i16 %127, ptr %134, align 2, !tbaa !62
  %135 = load ptr, ptr %11, align 8, !tbaa !60
  %136 = load i32, ptr %9, align 4, !tbaa !9
  %137 = mul nsw i32 0, %136
  %138 = add nsw i32 %137, 3
  %139 = add nsw i32 %138, 0
  %140 = sext i32 %139 to i64
  %141 = getelementptr inbounds i16, ptr %135, i64 %140
  store i16 %127, ptr %141, align 2, !tbaa !62
  %142 = load ptr, ptr %11, align 8, !tbaa !60
  %143 = load i32, ptr %9, align 4, !tbaa !9
  %144 = mul nsw i32 0, %143
  %145 = add nsw i32 %144, 0
  %146 = add nsw i32 %145, 0
  %147 = sext i32 %146 to i64
  %148 = getelementptr inbounds i16, ptr %142, i64 %147
  store i16 %127, ptr %148, align 2, !tbaa !62
  %149 = load ptr, ptr %11, align 8, !tbaa !60
  %150 = load i32, ptr %9, align 4, !tbaa !9
  %151 = mul nsw i32 1, %150
  %152 = add nsw i32 %151, 3
  %153 = add nsw i32 %152, 0
  %154 = sext i32 %153 to i64
  %155 = getelementptr inbounds i16, ptr %149, i64 %154
  store i16 %127, ptr %155, align 2, !tbaa !62
  %156 = load ptr, ptr %6, align 8, !tbaa !4
  %157 = getelementptr inbounds i8, ptr %156, i64 2
  store ptr %157, ptr %6, align 8, !tbaa !4
  %158 = load ptr, ptr %11, align 8, !tbaa !60
  %159 = getelementptr inbounds i16, ptr %158, i64 6
  store ptr %159, ptr %11, align 8, !tbaa !60
  br label %160

160:                                              ; preds = %20
  %161 = load i32, ptr %12, align 4, !tbaa !9
  %162 = add nsw i32 %161, 2
  store i32 %162, ptr %12, align 4, !tbaa !9
  br label %16, !llvm.loop !286

163:                                              ; preds = %16
  call void @llvm.lifetime.end.p0(i64 4, ptr %12) #11
  call void @llvm.lifetime.end.p0(i64 8, ptr %11) #11
  ret void
}