; Function Attrs: nofree norecurse nosync nounwind memory(argmem: readwrite) uwtable
define internal void @bayer_grbg8_to_rgb48_copy(ptr noundef readonly captures(none) %0, i32 noundef %1, ptr noundef writeonly captures(none) %2, i32 noundef %3, i32 noundef %4) unnamed_addr #0 {
  %6 = icmp sgt i32 %4, 0
  br i1 %6, label %.lr.ph, label %._crit_edge

.lr.ph:                                           ; preds = %5
  %7 = sdiv i32 %3, 2
  %8 = sext i32 %1 to i64
  %9 = sext i32 %7 to i64
  br label %10

10:                                               ; preds = %.lr.ph, %10
  %.046 = phi i32 [ 0, %.lr.ph ], [ %41, %10 ]
  %.04245 = phi ptr [ %2, %.lr.ph ], [ %40, %10 ]
  %.04344 = phi ptr [ %0, %.lr.ph ], [ %39, %10 ]
  %11 = getelementptr inbounds i8, ptr %.04344, i64 %8
  %12 = load i8, ptr %11, align 1, !tbaa !61
  %13 = zext i8 %12 to i16
  %14 = getelementptr i16, ptr %.04245, i64 %9
  %15 = getelementptr i8, ptr %14, i64 4
  store i16 %13, ptr %15, align 2, !tbaa !56
  %16 = getelementptr i8, ptr %14, i64 10
  store i16 %13, ptr %16, align 2, !tbaa !56
  %17 = getelementptr inbounds nuw i8, ptr %.04245, i64 10
  store i16 %13, ptr %17, align 2, !tbaa !56
  %18 = getelementptr inbounds nuw i8, ptr %.04245, i64 4
  store i16 %13, ptr %18, align 2, !tbaa !56
  %19 = load i8, ptr %.04344, align 1, !tbaa !61
  %20 = zext i8 %19 to i16
  %21 = getelementptr inbounds nuw i8, ptr %.04245, i64 2
  store i16 %20, ptr %21, align 2, !tbaa !56
  %22 = getelementptr i8, ptr %11, i64 1
  %23 = load i8, ptr %22, align 1, !tbaa !61
  %24 = zext i8 %23 to i16
  %25 = getelementptr i8, ptr %14, i64 8
  store i16 %24, ptr %25, align 2, !tbaa !56
  %26 = load i8, ptr %.04344, align 1, !tbaa !61
  %27 = zext i8 %26 to i16
  %28 = load i8, ptr %22, align 1, !tbaa !61
  %29 = zext i8 %28 to i16
  %30 = add nuw nsw i16 %29, %27
  %31 = lshr i16 %30, 1
  %32 = getelementptr i8, ptr %14, i64 2
  store i16 %31, ptr %32, align 2, !tbaa !56
  %33 = getelementptr inbounds nuw i8, ptr %.04245, i64 8
  store i16 %31, ptr %33, align 2, !tbaa !56
  %34 = getelementptr inbounds nuw i8, ptr %.04344, i64 1
  %35 = load i8, ptr %34, align 1, !tbaa !61
  %36 = zext i8 %35 to i16
  store i16 %36, ptr %14, align 2, !tbaa !56
  %37 = getelementptr inbounds nuw i8, ptr %.04245, i64 6
  store i16 %36, ptr %37, align 2, !tbaa !56
  store i16 %36, ptr %.04245, align 2, !tbaa !56
  %38 = getelementptr i8, ptr %14, i64 6
  store i16 %36, ptr %38, align 2, !tbaa !56
  %39 = getelementptr inbounds nuw i8, ptr %.04344, i64 2
  %40 = getelementptr inbounds nuw i8, ptr %.04245, i64 12
  %41 = add nuw nsw i32 %.046, 2
  %42 = icmp slt i32 %41, %4
  br i1 %42, label %10, label %._crit_edge, !llvm.loop !278

._crit_edge:                                      ; preds = %10, %5
  ret void
}